target datalayout = "e-m:e-p270:32:32-p271:32:32-p272:64:64-i64:64-i128:128-f80:128-n8:16:32:64-S128"
target triple = "x86_64-pc-linux-gnu"

%struct.StringInfoData = type { ptr, i32, i32, i32 }
%struct.CopyFromStateData = type { i32, ptr, ptr, i32, i32, i8, i32, ptr, ptr, ptr, i8, ptr, %struct.CopyFormatOptions, ptr, ptr, ptr, i64, ptr, ptr, i8, ptr, i16, ptr, ptr, ptr, i64, ptr, ptr, ptr, i8, ptr, ptr, ptr, ptr, %struct.StringInfoData, i32, ptr, %struct.StringInfoData, i8, ptr, i32, i32, i8, i8, ptr, i32, i32, i8, i64 }
%struct.CopyFormatOptions = type { i32, i8, i8, i8, i32, ptr, i32, ptr, ptr, i32, ptr, ptr, ptr, ptr, i8, ptr, ptr, i8, ptr, ptr, i8, ptr, i8, i32, i32, i64, ptr }

@.str.1 = private unnamed_addr constant [16 x i8] c"copyfromparse.c\00", align 1
@.str.16 = private unnamed_addr constant [34 x i8] c"could not read from COPY file: %m\00", align 1
@__func__.CopyGetData = private unnamed_addr constant [12 x i8] c"CopyGetData\00", align 1
@QueryCancelHoldoffCount = external global i32, align 4
@.str.17 = private unnamed_addr constant [61 x i8] c"unexpected EOF on client connection with an open transaction\00", align 1
@.str.18 = private unnamed_addr constant [54 x i8] c"unexpected message type 0x%02X during COPY from stdin\00", align 1
@.str.19 = private unnamed_addr constant [27 x i8] c"COPY from stdin failed: %s\00", align 1

; Function Attrs: nounwind uwtable
define internal i32 @CopyGetData(ptr noundef %0, ptr noundef %1, i32 noundef %2, i32 noundef %3) #0 {
  %5 = alloca i32, align 4
  %6 = alloca ptr, align 8
  %7 = alloca ptr, align 8
  %8 = alloca i32, align 4
  %9 = alloca i32, align 4
  %10 = alloca i32, align 4
  %11 = alloca i32, align 4
  %12 = alloca i32, align 4
  %13 = alloca i32, align 4
  %14 = alloca i32, align 4
  store ptr %0, ptr %6, align 8
  store ptr %1, ptr %7, align 8
  store i32 %2, ptr %8, align 4
  store i32 %3, ptr %9, align 4
  call void @llvm.lifetime.start.p0(i64 4, ptr %10) #12
  store i32 0, ptr %10, align 4
  %15 = load ptr, ptr %6, align 8
  %16 = getelementptr inbounds nuw %struct.CopyFromStateData, ptr %15, i32 0, i32 0
  %17 = load i32, ptr %16, align 8
  switch i32 %17, label %213 [
    i32 0, label %18
    i32 1, label %51
    i32 2, label %205
  ]

18:                                               ; preds = %4
  %19 = load ptr, ptr %7, align 8
  %20 = load i32, ptr %9, align 4
  %21 = sext i32 %20 to i64
  %22 = load ptr, ptr %6, align 8
  %23 = getelementptr inbounds nuw %struct.CopyFromStateData, ptr %22, i32 0, i32 1
  %24 = load ptr, ptr %23, align 8
  %25 = call i64 @fread(ptr noundef %19, i64 noundef 1, i64 noundef %21, ptr noundef %24)
  %26 = trunc i64 %25 to i32
  store i32 %26, ptr %10, align 4
  %27 = load ptr, ptr %6, align 8
  %28 = getelementptr inbounds nuw %struct.CopyFromStateData, ptr %27, i32 0, i32 1
  %29 = load ptr, ptr %28, align 8
  %30 = call i32 @ferror(ptr noundef %29) #12
  %31 = icmp ne i32 %30, 0
  br i1 %31, label %32, label %44

32:                                               ; preds = %18
  br label %33

33:                                               ; preds = %32
  br i1 true, label %34, label %36

34:                                               ; preds = %33
  %35 = call zeroext i1 @errstart_cold(i32 noundef 21, ptr noundef null) #14
  br i1 %35, label %38, label %41

36:                                               ; preds = %33
  %37 = call zeroext i1 @errstart(i32 noundef 21, ptr noundef null)
  br i1 %37, label %38, label %41

38:                                               ; preds = %36, %34
  %39 = call i32 @errcode_for_file_access()
  %40 = call i32 (ptr, ...) @errmsg(ptr noundef @.str.16)
  call void @errfinish(ptr noundef @.str.1, i32 noundef 247, ptr noundef @__func__.CopyGetData)
  br label %41

41:                                               ; preds = %38, %36, %34
  unreachable

42:                                               ; No predecessors!
  br label %43

43:                                               ; preds = %42
  br label %44

44:                                               ; preds = %43, %18
  %45 = load i32, ptr %10, align 4
  %46 = icmp eq i32 %45, 0
  br i1 %46, label %47, label %50

47:                                               ; preds = %44
  %48 = load ptr, ptr %6, align 8
  %49 = getelementptr inbounds nuw %struct.CopyFromStateData, ptr %48, i32 0, i32 47
  store i8 1, ptr %49, align 8
  br label %50

50:                                               ; preds = %47, %44
  br label %213

51:                                               ; preds = %4
  br label %52

52:                                               ; preds = %203, %51
  %53 = load i32, ptr %9, align 4
  %54 = icmp sgt i32 %53, 0
  br i1 %54, label %55, label %65

55:                                               ; preds = %52
  %56 = load i32, ptr %10, align 4
  %57 = load i32, ptr %8, align 4
  %58 = icmp slt i32 %56, %57
  br i1 %58, label %59, label %65

59:                                               ; preds = %55
  %60 = load ptr, ptr %6, align 8
  %61 = getelementptr inbounds nuw %struct.CopyFromStateData, ptr %60, i32 0, i32 47
  %62 = load i8, ptr %61, align 8, !range !4, !noundef !5
  %63 = trunc i8 %62 to i1
  %64 = xor i1 %63, true
  br label %65

65:                                               ; preds = %59, %55, %52
  %66 = phi i1 [ false, %55 ], [ false, %52 ], [ %64, %59 ]
  br i1 %66, label %67, label %204

67:                                               ; preds = %65
  call void @llvm.lifetime.start.p0(i64 4, ptr %11) #12
  br label %68

68:                                               ; preds = %167, %67
  %69 = load ptr, ptr %6, align 8
  %70 = getelementptr inbounds nuw %struct.CopyFromStateData, ptr %69, i32 0, i32 2
  %71 = load ptr, ptr %70, align 8
  %72 = getelementptr inbounds nuw %struct.StringInfoData, ptr %71, i32 0, i32 3
  %73 = load i32, ptr %72, align 8
  %74 = load ptr, ptr %6, align 8
  %75 = getelementptr inbounds nuw %struct.CopyFromStateData, ptr %74, i32 0, i32 2
  %76 = load ptr, ptr %75, align 8
  %77 = getelementptr inbounds nuw %struct.StringInfoData, ptr %76, i32 0, i32 1
  %78 = load i32, ptr %77, align 8
  %79 = icmp sge i32 %73, %78
  br i1 %79, label %80, label %168

80:                                               ; preds = %68
  call void @llvm.lifetime.start.p0(i64 4, ptr %12) #12
  call void @llvm.lifetime.start.p0(i64 4, ptr %13) #12
  br label %81

81:                                               ; preds = %162, %80
  %82 = load volatile i32, ptr @QueryCancelHoldoffCount, align 4
  %83 = add i32 %82, 1
  store volatile i32 %83, ptr @QueryCancelHoldoffCount, align 4
  call void @pq_startmsgread()
  %84 = call i32 @pq_getbyte()
  store i32 %84, ptr %12, align 4
  %85 = load i32, ptr %12, align 4
  %86 = icmp eq i32 %85, -1
  br i1 %86, label %87, label %99

87:                                               ; preds = %81
  br label %88

88:                                               ; preds = %87
  br i1 true, label %89, label %91

89:                                               ; preds = %88
  %90 = call zeroext i1 @errstart_cold(i32 noundef 21, ptr noundef null) #14
  br i1 %90, label %93, label %96

91:                                               ; preds = %88
  %92 = call zeroext i1 @errstart(i32 noundef 21, ptr noundef null)
  br i1 %92, label %93, label %96

93:                                               ; preds = %91, %89
  %94 = call i32 @errcode(i32 noundef 100663808)
  %95 = call i32 (ptr, ...) @errmsg(ptr noundef @.str.17)
  call void @errfinish(ptr noundef @.str.1, i32 noundef 269, ptr noundef @__func__.CopyGetData)
  br label %96

96:                                               ; preds = %93, %91, %89
  unreachable

97:                                               ; No predecessors!
  br label %98

98:                                               ; preds = %97
  br label %99

99:                                               ; preds = %98, %81
  %100 = load i32, ptr %12, align 4
  switch i32 %100, label %103 [
    i32 100, label %101
    i32 99, label %102
    i32 102, label %102
    i32 72, label %102
    i32 83, label %102
  ]

101:                                              ; preds = %99
  store i32 1073741822, ptr %13, align 4
  br label %116

102:                                              ; preds = %99, %99, %99, %99
  store i32 10000, ptr %13, align 4
  br label %116

103:                                              ; preds = %99
  br label %104

104:                                              ; preds = %103
  br i1 true, label %105, label %107

105:                                              ; preds = %104
  %106 = call zeroext i1 @errstart_cold(i32 noundef 21, ptr noundef null) #14
  br i1 %106, label %109, label %113

107:                                              ; preds = %104
  %108 = call zeroext i1 @errstart(i32 noundef 21, ptr noundef null)
  br i1 %108, label %109, label %113

109:                                              ; preds = %107, %105
  %110 = call i32 @errcode(i32 noundef 16908800)
  %111 = load i32, ptr %12, align 4
  %112 = call i32 (ptr, ...) @errmsg(ptr noundef @.str.18, i32 noundef %111)
  call void @errfinish(ptr noundef @.str.1, i32 noundef 286, ptr noundef @__func__.CopyGetData)
  br label %113

113:                                              ; preds = %109, %107, %105
  unreachable

114:                                              ; No predecessors!
  br label %115

115:                                              ; preds = %114
  store i32 0, ptr %13, align 4
  br label %116

116:                                              ; preds = %115, %102, %101
  %117 = load ptr, ptr %6, align 8
  %118 = getelementptr inbounds nuw %struct.CopyFromStateData, ptr %117, i32 0, i32 2
  %119 = load ptr, ptr %118, align 8
  %120 = load i32, ptr %13, align 4
  %121 = call i32 @pq_getmessage(ptr noundef %119, i32 noundef %120)
  %122 = icmp ne i32 %121, 0
  br i1 %122, label %123, label %135

123:                                              ; preds = %116
  br label %124

124:                                              ; preds = %123
  br i1 true, label %125, label %127

125:                                              ; preds = %124
  %126 = call zeroext i1 @errstart_cold(i32 noundef 21, ptr noundef null) #14
  br i1 %126, label %129, label %132

127:                                              ; preds = %124
  %128 = call zeroext i1 @errstart(i32 noundef 21, ptr noundef null)
  br i1 %128, label %129, label %132

129:                                              ; preds = %127, %125
  %130 = call i32 @errcode(i32 noundef 100663808)
  %131 = call i32 (ptr, ...) @errmsg(ptr noundef @.str.17)
  call void @errfinish(ptr noundef @.str.1, i32 noundef 294, ptr noundef @__func__.CopyGetData)
  br label %132

132:                                              ; preds = %129, %127, %125
  unreachable

133:                                              ; No predecessors!
  br label %134

134:                                              ; preds = %133
  br label %135

135:                                              ; preds = %134, %116
  br label %136

136:                                              ; preds = %135
  %137 = load volatile i32, ptr @QueryCancelHoldoffCount, align 4
  %138 = add i32 %137, -1
  store volatile i32 %138, ptr @QueryCancelHoldoffCount, align 4
  br label %139

139:                                              ; preds = %136
  br label %140

140:                                              ; preds = %139
  %141 = load i32, ptr %12, align 4
  switch i32 %141, label %163 [
    i32 100, label %164
    i32 99, label %142
    i32 102, label %146
    i32 72, label %162
    i32 83, label %162
  ]

142:                                              ; preds = %140
  %143 = load ptr, ptr %6, align 8
  %144 = getelementptr inbounds nuw %struct.CopyFromStateData, ptr %143, i32 0, i32 47
  store i8 1, ptr %144, align 8
  %145 = load i32, ptr %10, align 4
  store i32 %145, ptr %5, align 4
  store i32 1, ptr %14, align 4
  br label %165

146:                                              ; preds = %140
  br label %147

147:                                              ; preds = %146
  br i1 true, label %148, label %150

148:                                              ; preds = %147
  %149 = call zeroext i1 @errstart_cold(i32 noundef 21, ptr noundef null) #14
  br i1 %149, label %152, label %159

150:                                              ; preds = %147
  %151 = call zeroext i1 @errstart(i32 noundef 21, ptr noundef null)
  br i1 %151, label %152, label %159

152:                                              ; preds = %150, %148
  %153 = call i32 @errcode(i32 noundef 67371461)
  %154 = load ptr, ptr %6, align 8
  %155 = getelementptr inbounds nuw %struct.CopyFromStateData, ptr %154, i32 0, i32 2
  %156 = load ptr, ptr %155, align 8
  %157 = call ptr @pq_getmsgstring(ptr noundef %156)
  %158 = call i32 (ptr, ...) @errmsg(ptr noundef @.str.19, ptr noundef %157)
  call void @errfinish(ptr noundef @.str.1, i32 noundef 309, ptr noundef @__func__.CopyGetData)
  br label %159

159:                                              ; preds = %152, %150, %148
  unreachable

160:                                              ; No predecessors!
  br label %161

161:                                              ; preds = %160
  br label %164

162:                                              ; preds = %140, %140
  br label %81

163:                                              ; preds = %140
  br label %164

164:                                              ; preds = %163, %161, %140
  store i32 0, ptr %14, align 4
  br label %165

165:                                              ; preds = %164, %142
  call void @llvm.lifetime.end.p0(i64 4, ptr %13) #12
  call void @llvm.lifetime.end.p0(i64 4, ptr %12) #12
  %166 = load i32, ptr %14, align 4
  switch i32 %166, label %201 [
    i32 0, label %167
  ]

167:                                              ; preds = %165
  br label %68, !llvm.loop !18

168:                                              ; preds = %68
  %169 = load ptr, ptr %6, align 8
  %170 = getelementptr inbounds nuw %struct.CopyFromStateData, ptr %169, i32 0, i32 2
  %171 = load ptr, ptr %170, align 8
  %172 = getelementptr inbounds nuw %struct.StringInfoData, ptr %171, i32 0, i32 1
  %173 = load i32, ptr %172, align 8
  %174 = load ptr, ptr %6, align 8
  %175 = getelementptr inbounds nuw %struct.CopyFromStateData, ptr %174, i32 0, i32 2
  %176 = load ptr, ptr %175, align 8
  %177 = getelementptr inbounds nuw %struct.StringInfoData, ptr %176, i32 0, i32 3
  %178 = load i32, ptr %177, align 8
  %179 = sub i32 %173, %178
  store i32 %179, ptr %11, align 4
  %180 = load i32, ptr %11, align 4
  %181 = load i32, ptr %9, align 4
  %182 = icmp sgt i32 %180, %181
  br i1 %182, label %183, label %185

183:                                              ; preds = %168
  %184 = load i32, ptr %9, align 4
  store i32 %184, ptr %11, align 4
  br label %185

185:                                              ; preds = %183, %168
  %186 = load ptr, ptr %6, align 8
  %187 = getelementptr inbounds nuw %struct.CopyFromStateData, ptr %186, i32 0, i32 2
  %188 = load ptr, ptr %187, align 8
  %189 = load ptr, ptr %7, align 8
  %190 = load i32, ptr %11, align 4
  call void @pq_copymsgbytes(ptr noundef %188, ptr noundef %189, i32 noundef %190)
  %191 = load ptr, ptr %7, align 8
  %192 = load i32, ptr %11, align 4
  %193 = sext i32 %192 to i64
  %194 = getelementptr inbounds i8, ptr %191, i64 %193
  store ptr %194, ptr %7, align 8
  %195 = load i32, ptr %11, align 4
  %196 = load i32, ptr %9, align 4
  %197 = sub i32 %196, %195
  store i32 %197, ptr %9, align 4
  %198 = load i32, ptr %11, align 4
  %199 = load i32, ptr %10, align 4
  %200 = add i32 %199, %198
  store i32 %200, ptr %10, align 4
  store i32 0, ptr %14, align 4
  br label %201

201:                                              ; preds = %185, %165
  call void @llvm.lifetime.end.p0(i64 4, ptr %11) #12
  %202 = load i32, ptr %14, align 4
  switch i32 %202, label %215 [
    i32 0, label %203
  ]

203:                                              ; preds = %201
  br label %52, !llvm.loop !19

204:                                              ; preds = %65
  br label %213

205:                                              ; preds = %4
  %206 = load ptr, ptr %6, align 8
  %207 = getelementptr inbounds nuw %struct.CopyFromStateData, ptr %206, i32 0, i32 11
  %208 = load ptr, ptr %207, align 8
  %209 = load ptr, ptr %7, align 8
  %210 = load i32, ptr %8, align 4
  %211 = load i32, ptr %9, align 4
  %212 = call i32 %208(ptr noundef %209, i32 noundef %210, i32 noundef %211)
  store i32 %212, ptr %10, align 4
  br label %213

213:                                              ; preds = %4, %205, %204, %50
  %214 = load i32, ptr %10, align 4
  store i32 %214, ptr %5, align 4
  store i32 1, ptr %14, align 4
  br label %215

215:                                              ; preds = %213, %201
  call void @llvm.lifetime.end.p0(i64 4, ptr %10) #12
  %216 = load i32, ptr %5, align 4
  ret i32 %216
}