; Function Attrs: nounwind uwtable
define internal fastcc i32 @CopyGetData(ptr noundef captures(none) %0, ptr noundef %1, i32 noundef %2) unnamed_addr #0 {
  %4 = load i32, ptr %0, align 8
  switch i32 %4, label %.critedge [
    i32 0, label %8
    i32 1, label %.preheader66
    i32 2, label %71
  ]

.preheader66:                                     ; preds = %3
  %5 = getelementptr inbounds nuw i8, ptr %0, i64 544
  %6 = getelementptr inbounds nuw i8, ptr %0, i64 16
  %7 = icmp sgt i32 %2, 0
  br i1 %7, label %.lr.ph, label %.critedge

8:                                                ; preds = %3
  %9 = sext i32 %2 to i64
  %10 = getelementptr inbounds nuw i8, ptr %0, i64 8
  %11 = load ptr, ptr %10, align 8
  %12 = tail call i64 @fread(ptr noundef %1, i64 noundef 1, i64 noundef %9, ptr noundef %11)
  %13 = load ptr, ptr %10, align 8
  %14 = tail call i32 @ferror(ptr noundef %13) #16
  %.not62 = icmp eq i32 %14, 0
  br i1 %.not62, label %19, label %15

15:                                               ; preds = %8
  %16 = tail call zeroext i1 @errstart_cold(i32 noundef 21, ptr noundef null) #17
  tail call void @llvm.assume(i1 %16)
  %17 = tail call i32 @errcode_for_file_access() #16
  %18 = tail call i32 (ptr, ...) @errmsg(ptr noundef nonnull @.str.16) #16
  tail call void @errfinish(ptr noundef nonnull @.str.1, i32 noundef 247, ptr noundef nonnull @__func__.CopyGetData) #16
  unreachable

19:                                               ; preds = %8
  %20 = trunc i64 %12 to i32
  %21 = icmp eq i32 %20, 0
  br i1 %21, label %22, label %.critedge

22:                                               ; preds = %19
  %23 = getelementptr inbounds nuw i8, ptr %0, i64 544
  store i8 1, ptr %23, align 8
  br label %.critedge

.lr.ph:                                           ; preds = %.preheader66, %.loopexit121
  %.14916 = phi i32 [ %68, %.loopexit121 ], [ 0, %.preheader66 ]
  %.05115 = phi i32 [ %67, %.loopexit121 ], [ %2, %.preheader66 ]
  %.05314 = phi ptr [ %66, %.loopexit121 ], [ %1, %.preheader66 ]
  %24 = load i8, ptr %5, align 8, !range !4, !noundef !5
  %25 = trunc nuw i8 %24 to i1
  br i1 %25, label %.critedge, label %.preheader65

.preheader65:                                     ; preds = %.lr.ph
  %26 = load ptr, ptr %6, align 8
  %27 = getelementptr inbounds nuw i8, ptr %26, i64 16
  %28 = load i32, ptr %27, align 8
  %29 = getelementptr inbounds nuw i8, ptr %26, i64 8
  %30 = load i32, ptr %29, align 8
  %.not102 = icmp slt i32 %28, %30
  br i1 %.not102, label %.loopexit121, label %.preheader

.loopexit:                                        ; preds = %55
  %31 = load ptr, ptr %6, align 8
  %32 = getelementptr inbounds nuw i8, ptr %31, i64 16
  %33 = load i32, ptr %32, align 8
  %34 = getelementptr inbounds nuw i8, ptr %31, i64 8
  %35 = load i32, ptr %34, align 8
  %.not = icmp slt i32 %33, %35
  br i1 %.not, label %.loopexit121, label %.preheader.backedge

.preheader.backedge:                              ; preds = %.loopexit, %55, %55
  br label %.preheader, !llvm.loop !21

.preheader:                                       ; preds = %.preheader65, %.preheader.backedge
  %36 = load volatile i32, ptr @QueryCancelHoldoffCount, align 4
  %37 = add i32 %36, 1
  store volatile i32 %37, ptr @QueryCancelHoldoffCount, align 4
  tail call void @pq_startmsgread() #16
  %38 = tail call i32 @pq_getbyte() #16
  switch i32 %38, label %44 [
    i32 -1, label %39
    i32 100, label %48
    i32 99, label %43
    i32 102, label %43
    i32 72, label %43
    i32 83, label %43
  ]

39:                                               ; preds = %.preheader
  %40 = tail call zeroext i1 @errstart_cold(i32 noundef 21, ptr noundef null) #17
  tail call void @llvm.assume(i1 %40)
  %41 = tail call i32 @errcode(i32 noundef 100663808) #16
  %42 = tail call i32 (ptr, ...) @errmsg(ptr noundef nonnull @.str.17) #16
  tail call void @errfinish(ptr noundef nonnull @.str.1, i32 noundef 269, ptr noundef nonnull @__func__.CopyGetData) #16
  unreachable

43:                                               ; preds = %.preheader, %.preheader, %.preheader, %.preheader
  br label %48

44:                                               ; preds = %.preheader
  %45 = tail call zeroext i1 @errstart_cold(i32 noundef 21, ptr noundef null) #17
  tail call void @llvm.assume(i1 %45)
  %46 = tail call i32 @errcode(i32 noundef 16908800) #16
  %47 = tail call i32 (ptr, ...) @errmsg(ptr noundef nonnull @.str.18, i32 noundef %38) #16
  tail call void @errfinish(ptr noundef nonnull @.str.1, i32 noundef 286, ptr noundef nonnull @__func__.CopyGetData) #16
  unreachable

48:                                               ; preds = %.preheader, %43
  %.044 = phi i32 [ 10000, %43 ], [ 1073741822, %.preheader ]
  %49 = load ptr, ptr %6, align 8
  %50 = tail call i32 @pq_getmessage(ptr noundef %49, i32 noundef %.044) #16
  %.not61 = icmp eq i32 %50, 0
  br i1 %.not61, label %55, label %51

51:                                               ; preds = %48
  %52 = tail call zeroext i1 @errstart_cold(i32 noundef 21, ptr noundef null) #17
  tail call void @llvm.assume(i1 %52)
  %53 = tail call i32 @errcode(i32 noundef 100663808) #16
  %54 = tail call i32 (ptr, ...) @errmsg(ptr noundef nonnull @.str.17) #16
  tail call void @errfinish(ptr noundef nonnull @.str.1, i32 noundef 294, ptr noundef nonnull @__func__.CopyGetData) #16
  unreachable

55:                                               ; preds = %48
  %56 = load volatile i32, ptr @QueryCancelHoldoffCount, align 4
  %57 = add i32 %56, -1
  store volatile i32 %57, ptr @QueryCancelHoldoffCount, align 4
  switch i32 %38, label %.loopexit [
    i32 83, label %.preheader.backedge
    i32 99, label %.thread115
    i32 102, label %58
    i32 72, label %.preheader.backedge
  ]

.thread115:                                       ; preds = %55
  store i8 1, ptr %5, align 8
  br label %.critedge

58:                                               ; preds = %55
  %59 = tail call zeroext i1 @errstart_cold(i32 noundef 21, ptr noundef null) #17
  tail call void @llvm.assume(i1 %59)
  %60 = tail call i32 @errcode(i32 noundef 67371461) #16
  %61 = load ptr, ptr %6, align 8
  %62 = tail call ptr @pq_getmsgstring(ptr noundef %61) #16
  %63 = tail call i32 (ptr, ...) @errmsg(ptr noundef nonnull @.str.19, ptr noundef %62) #16
  tail call void @errfinish(ptr noundef nonnull @.str.1, i32 noundef 309, ptr noundef nonnull @__func__.CopyGetData) #16
  unreachable

.loopexit121:                                     ; preds = %.loopexit, %.preheader65
  %.lcssa90 = phi ptr [ %26, %.preheader65 ], [ %31, %.loopexit ]
  %.lcssa84 = phi i32 [ %28, %.preheader65 ], [ %33, %.loopexit ]
  %.lcssa78 = phi i32 [ %30, %.preheader65 ], [ %35, %.loopexit ]
  %64 = sub i32 %.lcssa78, %.lcssa84
  %spec.select = tail call i32 @llvm.smin.i32(i32 %64, i32 %.05115)
  tail call void @pq_copymsgbytes(ptr noundef nonnull %.lcssa90, ptr noundef %.05314, i32 noundef %spec.select) #16
  %65 = sext i32 %spec.select to i64
  %66 = getelementptr inbounds i8, ptr %.05314, i64 %65
  %67 = sub i32 %.05115, %spec.select
  %68 = add i32 %spec.select, %.14916
  %69 = icmp sgt i32 %67, 0
  %70 = icmp slt i32 %68, 1
  %or.cond = select i1 %69, i1 %70, i1 false
  br i1 %or.cond, label %.lr.ph, label %.critedge, !llvm.loop !22

71:                                               ; preds = %3
  %72 = getelementptr inbounds nuw i8, ptr %0, i64 72
  %73 = load ptr, ptr %72, align 8
  %74 = tail call i32 %73(ptr noundef %1, i32 noundef 1, i32 noundef %2) #16
  br label %.critedge

.critedge:                                        ; preds = %.lr.ph, %.loopexit121, %.preheader66, %.thread115, %3, %71, %22, %19
  %.4 = phi i32 [ 0, %3 ], [ %74, %71 ], [ 0, %22 ], [ %20, %19 ], [ %.14916, %.thread115 ], [ 0, %.preheader66 ], [ %68, %.loopexit121 ], [ %.14916, %.lr.ph ]
  ret i32 %.4
}